target datalayout = "e-m:e-p270:32:32-p271:32:32-p272:64:64-i64:64-i128:128-f80:128-n8:16:32:64-S128"
target triple = "x86_64-pc-linux-gnu"

%"class.icu_77::UnicodeString" = type { %"class.icu_77::Replaceable", %"union.icu_77::UnicodeString::StackBufferOrFields" }
%"class.icu_77::Replaceable" = type { %"class.icu_77::UObject" }
%"class.icu_77::UObject" = type { ptr }
%"union.icu_77::UnicodeString::StackBufferOrFields" = type { %struct.anon.0, [32 x i8] }
%struct.anon.0 = type { i16, i32, i32, ptr }
%"class.icu_77::VTimeZone" = type { %"class.icu_77::BasicTimeZone", ptr, ptr, %"class.icu_77::UnicodeString", double, %"class.icu_77::UnicodeString", %"class.icu_77::UnicodeString" }
%"class.icu_77::BasicTimeZone" = type { %"class.icu_77::TimeZone" }
%"class.icu_77::TimeZone" = type { %"class.icu_77::UObject", %"class.icu_77::UnicodeString" }

; Function Attrs: mustprogress nounwind uwtable
define noundef signext i8 @_ZNK6icu_779VTimeZone15getLastModifiedERd(ptr noundef nonnull align 8 dereferenceable(288) %0, ptr noundef nonnull align 8 dereferenceable(8) %1) #0 align 2 {
  %3 = alloca i8, align 1
  %4 = alloca ptr, align 8
  %5 = alloca ptr, align 8
  store ptr %0, ptr %4, align 8, !tbaa !29
  store ptr %1, ptr %5, align 8, !tbaa !75
  %6 = load ptr, ptr %4, align 8
  %7 = getelementptr inbounds nuw %"class.icu_77::VTimeZone", ptr %6, i32 0, i32 4
  %8 = load double, ptr %7, align 8, !tbaa !44
  %9 = fcmp une double %8, 0x43846A3EDDF8CD80
  br i1 %9, label %10, label %14

10:                                               ; preds = %2
  %11 = getelementptr inbounds nuw %"class.icu_77::VTimeZone", ptr %6, i32 0, i32 4
  %12 = load double, ptr %11, align 8, !tbaa !44
  %13 = load ptr, ptr %5, align 8, !tbaa !75
  store double %12, ptr %13, align 8, !tbaa !77
  store i8 1, ptr %3, align 1
  br label %15

14:                                               ; preds = %2
  store i8 0, ptr %3, align 1
  br label %15

15:                                               ; preds = %14, %10
  %16 = load i8, ptr %3, align 1
  ret i8 %16
}