; Function Attrs: mustprogress nofree norecurse nosync nounwind willreturn memory(argmem: readwrite) uwtable
define noundef signext range(i8 0, 2) i8 @_ZNK6icu_779VTimeZone15getLastModifiedERd(ptr noundef nonnull readonly align 8 captures(none) dereferenceable(288) %0, ptr noundef nonnull writeonly align 8 captures(none) dereferenceable(8) %1) local_unnamed_addr #8 align 2 {
  %3 = getelementptr inbounds nuw i8, ptr %0, i64 152
  %4 = load double, ptr %3, align 8, !tbaa !19
  %5 = fcmp une double %4, 0x43846A3EDDF8CD80
  br i1 %5, label %6, label %7

6:                                                ; preds = %2
  store double %4, ptr %1, align 8, !tbaa !45
  br label %7

7:                                                ; preds = %2, %6
  %.0 = phi i8 [ 1, %6 ], [ 0, %2 ]
  ret i8 %.0
}